target datalayout = "e-m:e-p270:32:32-p271:32:32-p272:64:64-i64:64-i128:128-f80:128-n8:16:32:64-S128"
target triple = "x86_64-pc-linux-gnu"

%struct.IndexClauseSet = type { i8, [32 x ptr] }
%struct.ForEachState = type { ptr, i32 }
%struct.RelOptInfo = type { i32, i32, ptr, double, i8, i8, i8, ptr, ptr, ptr, ptr, ptr, ptr, ptr, ptr, ptr, ptr, i32, i32, i32, i16, i16, ptr, ptr, ptr, ptr, ptr, ptr, ptr, ptr, i32, double, double, ptr, ptr, ptr, i32, i32, i32, i32, i8, ptr, ptr, ptr, ptr, ptr, %struct.QualCost, i32, ptr, i8, i8, ptr, ptr, ptr, ptr, i32, ptr, i8, ptr, ptr, ptr, ptr, ptr, ptr }
%struct.QualCost = type { double, double }
%struct.List = type { i32, i32, i32, ptr, [0 x %union.ListCell] }
%union.ListCell = type { ptr }
%struct.IndexOptInfo = type { i32, i32, i32, ptr, i32, double, i32, i32, i32, ptr, ptr, ptr, ptr, ptr, ptr, ptr, ptr, ptr, i32, ptr, ptr, ptr, ptr, i8, i8, i8, i8, i8, i8, i8, i8, i8, i8, i8, i8, i8, ptr }

; Function Attrs: nounwind uwtable
define internal void @match_clauses_to_index(ptr noundef %0, ptr noundef %1, ptr noundef %2, ptr noundef %3) #0 {
  %5 = alloca ptr, align 8
  %6 = alloca ptr, align 8
  %7 = alloca ptr, align 8
  %8 = alloca ptr, align 8
  %9 = alloca ptr, align 8
  %10 = alloca %struct.ForEachState, align 8
  %11 = alloca ptr, align 8
  store ptr %0, ptr %5, align 8
  store ptr %1, ptr %6, align 8
  store ptr %2, ptr %7, align 8
  store ptr %3, ptr %8, align 8
  call void @llvm.lifetime.start.p0(i64 8, ptr %9) #7
  call void @llvm.lifetime.start.p0(i64 16, ptr %10) #7
  %12 = getelementptr inbounds nuw %struct.ForEachState, ptr %10, i32 0, i32 0
  %13 = load ptr, ptr %6, align 8
  store ptr %13, ptr %12, align 8
  %14 = getelementptr inbounds nuw %struct.ForEachState, ptr %10, i32 0, i32 1
  store i32 0, ptr %14, align 8
  %15 = getelementptr i8, ptr %10, i64 12
  call void @llvm.memset.p0.i64(ptr align 4 %15, i8 0, i64 4, i1 false)
  br label %16

16:                                               ; preds = %49, %4
  %17 = getelementptr inbounds nuw %struct.ForEachState, ptr %10, i32 0, i32 0
  %18 = load ptr, ptr %17, align 8
  %19 = icmp ne ptr %18, null
  br i1 %19, label %20, label %37

20:                                               ; preds = %16
  %21 = getelementptr inbounds nuw %struct.ForEachState, ptr %10, i32 0, i32 1
  %22 = load i32, ptr %21, align 8
  %23 = getelementptr inbounds nuw %struct.ForEachState, ptr %10, i32 0, i32 0
  %24 = load ptr, ptr %23, align 8
  %25 = getelementptr inbounds nuw %struct.List, ptr %24, i32 0, i32 1
  %26 = load i32, ptr %25, align 4
  %27 = icmp slt i32 %22, %26
  br i1 %27, label %28, label %37

28:                                               ; preds = %20
  %29 = getelementptr inbounds nuw %struct.ForEachState, ptr %10, i32 0, i32 0
  %30 = load ptr, ptr %29, align 8
  %31 = getelementptr inbounds nuw %struct.List, ptr %30, i32 0, i32 3
  %32 = load ptr, ptr %31, align 8
  %33 = getelementptr inbounds nuw %struct.ForEachState, ptr %10, i32 0, i32 1
  %34 = load i32, ptr %33, align 8
  %35 = sext i32 %34 to i64
  %36 = getelementptr inbounds %union.ListCell, ptr %32, i64 %35
  store ptr %36, ptr %9, align 8
  br label %38

37:                                               ; preds = %20, %16
  store ptr null, ptr %9, align 8
  br label %38

38:                                               ; preds = %37, %28
  %39 = phi i32 [ 1, %28 ], [ 0, %37 ]
  %40 = icmp ne i32 %39, 0
  br i1 %40, label %42, label %41

41:                                               ; preds = %38
  call void @llvm.lifetime.end.p0(i64 16, ptr %10) #7
  br label %53

42:                                               ; preds = %38
  call void @llvm.lifetime.start.p0(i64 8, ptr %11) #7
  %43 = load ptr, ptr %9, align 8
  %44 = load ptr, ptr %43, align 8
  store ptr %44, ptr %11, align 8
  %45 = load ptr, ptr %5, align 8
  %46 = load ptr, ptr %11, align 8
  %47 = load ptr, ptr %7, align 8
  %48 = load ptr, ptr %8, align 8
  call void @match_clause_to_index(ptr noundef %45, ptr noundef %46, ptr noundef %47, ptr noundef %48)
  call void @llvm.lifetime.end.p0(i64 8, ptr %11) #7
  br label %49

49:                                               ; preds = %42
  %50 = getelementptr inbounds nuw %struct.ForEachState, ptr %10, i32 0, i32 1
  %51 = load i32, ptr %50, align 8
  %52 = add i32 %51, 1
  store i32 %52, ptr %50, align 8
  br label %16, !llvm.loop !59

53:                                               ; preds = %41
  call void @llvm.lifetime.end.p0(i64 8, ptr %9) #7
  ret void
}

; Function Attrs: nounwind uwtable
define internal ptr @build_paths_for_OR(ptr noundef %0, ptr noundef %1, ptr noundef %2, ptr noundef %3) #0 {
  %5 = alloca ptr, align 8
  %6 = alloca ptr, align 8
  %7 = alloca ptr, align 8
  %8 = alloca ptr, align 8
  %9 = alloca ptr, align 8
  %10 = alloca ptr, align 8
  %11 = alloca ptr, align 8
  %12 = alloca %struct.ForEachState, align 8
  %13 = alloca i32, align 4
  %14 = alloca ptr, align 8
  %15 = alloca %struct.IndexClauseSet, align 8
  %16 = alloca ptr, align 8
  %17 = alloca i8, align 1
  %18 = alloca ptr, align 8
  %19 = alloca i32, align 4
  %20 = alloca i64, align 8
  %21 = alloca ptr, align 8
  %22 = alloca ptr, align 8
  store ptr %0, ptr %5, align 8
  store ptr %1, ptr %6, align 8
  store ptr %2, ptr %7, align 8
  store ptr %3, ptr %8, align 8
  call void @llvm.lifetime.start.p0(i64 8, ptr %9) #7
  store ptr null, ptr %9, align 8
  call void @llvm.lifetime.start.p0(i64 8, ptr %10) #7
  store ptr null, ptr %10, align 8
  call void @llvm.lifetime.start.p0(i64 8, ptr %11) #7
  call void @llvm.lifetime.start.p0(i64 16, ptr %12) #7
  %23 = getelementptr inbounds nuw %struct.ForEachState, ptr %12, i32 0, i32 0
  %24 = load ptr, ptr %6, align 8
  %25 = getelementptr inbounds nuw %struct.RelOptInfo, ptr %24, i32 0, i32 28
  %26 = load ptr, ptr %25, align 8
  store ptr %26, ptr %23, align 8
  %27 = getelementptr inbounds nuw %struct.ForEachState, ptr %12, i32 0, i32 1
  store i32 0, ptr %27, align 8
  %28 = getelementptr i8, ptr %12, i64 12
  call void @llvm.memset.p0.i64(ptr align 4 %28, i8 0, i64 4, i1 false)
  br label %29

29:                                               ; preds = %160, %4
  %30 = getelementptr inbounds nuw %struct.ForEachState, ptr %12, i32 0, i32 0
  %31 = load ptr, ptr %30, align 8
  %32 = icmp ne ptr %31, null
  br i1 %32, label %33, label %50

33:                                               ; preds = %29
  %34 = getelementptr inbounds nuw %struct.ForEachState, ptr %12, i32 0, i32 1
  %35 = load i32, ptr %34, align 8
  %36 = getelementptr inbounds nuw %struct.ForEachState, ptr %12, i32 0, i32 0
  %37 = load ptr, ptr %36, align 8
  %38 = getelementptr inbounds nuw %struct.List, ptr %37, i32 0, i32 1
  %39 = load i32, ptr %38, align 4
  %40 = icmp slt i32 %35, %39
  br i1 %40, label %41, label %50

41:                                               ; preds = %33
  %42 = getelementptr inbounds nuw %struct.ForEachState, ptr %12, i32 0, i32 0
  %43 = load ptr, ptr %42, align 8
  %44 = getelementptr inbounds nuw %struct.List, ptr %43, i32 0, i32 3
  %45 = load ptr, ptr %44, align 8
  %46 = getelementptr inbounds nuw %struct.ForEachState, ptr %12, i32 0, i32 1
  %47 = load i32, ptr %46, align 8
  %48 = sext i32 %47 to i64
  %49 = getelementptr inbounds %union.ListCell, ptr %45, i64 %48
  store ptr %49, ptr %11, align 8
  br label %51

50:                                               ; preds = %33, %29
  store ptr null, ptr %11, align 8
  br label %51

51:                                               ; preds = %50, %41
  %52 = phi i32 [ 1, %41 ], [ 0, %50 ]
  %53 = icmp ne i32 %52, 0
  br i1 %53, label %55, label %54

54:                                               ; preds = %51
  store i32 2, ptr %13, align 4
  call void @llvm.lifetime.end.p0(i64 16, ptr %12) #7
  br label %164

55:                                               ; preds = %51
  call void @llvm.lifetime.start.p0(i64 8, ptr %14) #7
  %56 = load ptr, ptr %11, align 8
  %57 = load ptr, ptr %56, align 8
  store ptr %57, ptr %14, align 8
  call void @llvm.lifetime.start.p0(i64 264, ptr %15) #7
  call void @llvm.lifetime.start.p0(i64 8, ptr %16) #7
  call void @llvm.lifetime.start.p0(i64 1, ptr %17) #7
  %58 = load ptr, ptr %14, align 8
  %59 = getelementptr inbounds nuw %struct.IndexOptInfo, ptr %58, i32 0, i32 33
  %60 = load i8, ptr %59, align 2, !range !4, !noundef !5
  %61 = trunc i8 %60 to i1
  br i1 %61, label %63, label %62

62:                                               ; preds = %55
  store i32 4, ptr %13, align 4
  br label %157

63:                                               ; preds = %55
  store i8 0, ptr %17, align 1
  %64 = load ptr, ptr %14, align 8
  %65 = getelementptr inbounds nuw %struct.IndexOptInfo, ptr %64, i32 0, i32 20
  %66 = load ptr, ptr %65, align 8
  %67 = icmp ne ptr %66, null
  br i1 %67, label %68, label %97

68:                                               ; preds = %63
  %69 = load ptr, ptr %14, align 8
  %70 = getelementptr inbounds nuw %struct.IndexOptInfo, ptr %69, i32 0, i32 23
  %71 = load i8, ptr %70, align 8, !range !4, !noundef !5
  %72 = trunc i8 %71 to i1
  br i1 %72, label %73, label %74

73:                                               ; preds = %68
  br label %96

74:                                               ; preds = %68
  %75 = load ptr, ptr %10, align 8
  %76 = icmp eq ptr %75, null
  br i1 %76, label %77, label %81

77:                                               ; preds = %74
  %78 = load ptr, ptr %7, align 8
  %79 = load ptr, ptr %8, align 8
  %80 = call ptr @list_concat_copy(ptr noundef %78, ptr noundef %79)
  store ptr %80, ptr %10, align 8
  br label %81

81:                                               ; preds = %77, %74
  %82 = load ptr, ptr %14, align 8
  %83 = getelementptr inbounds nuw %struct.IndexOptInfo, ptr %82, i32 0, i32 20
  %84 = load ptr, ptr %83, align 8
  %85 = load ptr, ptr %10, align 8
  %86 = call zeroext i1 @predicate_implied_by(ptr noundef %84, ptr noundef %85, i1 noundef zeroext false)
  br i1 %86, label %88, label %87

87:                                               ; preds = %81
  store i32 4, ptr %13, align 4
  br label %157

88:                                               ; preds = %81
  %89 = load ptr, ptr %14, align 8
  %90 = getelementptr inbounds nuw %struct.IndexOptInfo, ptr %89, i32 0, i32 20
  %91 = load ptr, ptr %90, align 8
  %92 = load ptr, ptr %8, align 8
  %93 = call zeroext i1 @predicate_implied_by(ptr noundef %91, ptr noundef %92, i1 noundef zeroext false)
  br i1 %93, label %95, label %94

94:                                               ; preds = %88
  store i8 1, ptr %17, align 1
  br label %95

95:                                               ; preds = %94, %88
  br label %96

96:                                               ; preds = %95, %73
  br label %97

97:                                               ; preds = %96, %63
  br label %98

98:                                               ; preds = %97
  call void @llvm.lifetime.start.p0(i64 8, ptr %18) #7
  store ptr %15, ptr %18, align 8
  call void @llvm.lifetime.start.p0(i64 4, ptr %19) #7
  store i32 0, ptr %19, align 4
  call void @llvm.lifetime.start.p0(i64 8, ptr %20) #7
  store i64 264, ptr %20, align 8
  %99 = load ptr, ptr %18, align 8
  %100 = ptrtoint ptr %99 to i64
  %101 = and i64 %100, 7
  %102 = icmp eq i64 %101, 0
  br i1 %102, label %103, label %126

103:                                              ; preds = %98
  %104 = load i64, ptr %20, align 8
  %105 = and i64 %104, 7
  %106 = icmp eq i64 %105, 0
  br i1 %106, label %107, label %126

107:                                              ; preds = %103
  %108 = load i32, ptr %19, align 4
  %109 = icmp eq i32 %108, 0
  br i1 %109, label %110, label %126

110:                                              ; preds = %107
  %111 = load i64, ptr %20, align 8
  %112 = icmp ule i64 %111, 1024
  br i1 %112, label %113, label %126

113:                                              ; preds = %110
  call void @llvm.lifetime.start.p0(i64 8, ptr %21) #7
  %114 = load ptr, ptr %18, align 8
  store ptr %114, ptr %21, align 8
  call void @llvm.lifetime.start.p0(i64 8, ptr %22) #7
  %115 = load ptr, ptr %21, align 8
  %116 = load i64, ptr %20, align 8
  %117 = getelementptr inbounds nuw i8, ptr %115, i64 %116
  store ptr %117, ptr %22, align 8
  br label %118

118:                                              ; preds = %122, %113
  %119 = load ptr, ptr %21, align 8
  %120 = load ptr, ptr %22, align 8
  %121 = icmp ult ptr %119, %120
  br i1 %121, label %122, label %125

122:                                              ; preds = %118
  %123 = load ptr, ptr %21, align 8
  %124 = getelementptr inbounds nuw i64, ptr %123, i32 1
  store ptr %124, ptr %21, align 8
  store i64 0, ptr %123, align 8
  br label %118, !llvm.loop !56

125:                                              ; preds = %118
  call void @llvm.lifetime.end.p0(i64 8, ptr %22) #7
  call void @llvm.lifetime.end.p0(i64 8, ptr %21) #7
  br label %131

126:                                              ; preds = %110, %107, %103, %98
  %127 = load ptr, ptr %18, align 8
  %128 = load i32, ptr %19, align 4
  %129 = trunc i32 %128 to i8
  %130 = load i64, ptr %20, align 8
  call void @llvm.memset.p0.i64(ptr align 1 %127, i8 %129, i64 %130, i1 false)
  br label %131

131:                                              ; preds = %126, %125
  call void @llvm.lifetime.end.p0(i64 8, ptr %20) #7
  call void @llvm.lifetime.end.p0(i64 4, ptr %19) #7
  call void @llvm.lifetime.end.p0(i64 8, ptr %18) #7
  br label %132

132:                                              ; preds = %131
  br label %133

133:                                              ; preds = %132
  %134 = load ptr, ptr %5, align 8
  %135 = load ptr, ptr %7, align 8
  %136 = load ptr, ptr %14, align 8
  call void @match_clauses_to_index(ptr noundef %134, ptr noundef %135, ptr noundef %136, ptr noundef %15)
  %137 = getelementptr inbounds nuw %struct.IndexClauseSet, ptr %15, i32 0, i32 0
  %138 = load i8, ptr %137, align 8, !range !4, !noundef !5
  %139 = trunc i8 %138 to i1
  br i1 %139, label %144, label %140

140:                                              ; preds = %133
  %141 = load i8, ptr %17, align 1, !range !4, !noundef !5
  %142 = trunc i8 %141 to i1
  br i1 %142, label %144, label %143

143:                                              ; preds = %140
  store i32 4, ptr %13, align 4
  br label %157

144:                                              ; preds = %140, %133
  %145 = load ptr, ptr %5, align 8
  %146 = load ptr, ptr %8, align 8
  %147 = load ptr, ptr %14, align 8
  call void @match_clauses_to_index(ptr noundef %145, ptr noundef %146, ptr noundef %147, ptr noundef %15)
  %148 = load ptr, ptr %5, align 8
  %149 = load ptr, ptr %6, align 8
  %150 = load ptr, ptr %14, align 8
  %151 = load i8, ptr %17, align 1, !range !4, !noundef !5
  %152 = trunc i8 %151 to i1
  %153 = call ptr @build_index_paths(ptr noundef %148, ptr noundef %149, ptr noundef %150, ptr noundef %15, i1 noundef zeroext %152, i32 noundef 1, ptr noundef null)
  store ptr %153, ptr %16, align 8
  %154 = load ptr, ptr %9, align 8
  %155 = load ptr, ptr %16, align 8
  %156 = call ptr @list_concat(ptr noundef %154, ptr noundef %155)
  store ptr %156, ptr %9, align 8
  store i32 0, ptr %13, align 4
  br label %157

157:                                              ; preds = %144, %143, %87, %62
  call void @llvm.lifetime.end.p0(i64 1, ptr %17) #7
  call void @llvm.lifetime.end.p0(i64 8, ptr %16) #7
  call void @llvm.lifetime.end.p0(i64 264, ptr %15) #7
  call void @llvm.lifetime.end.p0(i64 8, ptr %14) #7
  %158 = load i32, ptr %13, align 4
  switch i32 %158, label %166 [
    i32 0, label %159
    i32 4, label %160
  ]

159:                                              ; preds = %157
  br label %160

160:                                              ; preds = %159, %157
  %161 = getelementptr inbounds nuw %struct.ForEachState, ptr %12, i32 0, i32 1
  %162 = load i32, ptr %161, align 8
  %163 = add i32 %162, 1
  store i32 %163, ptr %161, align 8
  br label %29, !llvm.loop !57

164:                                              ; preds = %54
  %165 = load ptr, ptr %9, align 8
  store i32 1, ptr %13, align 4
  call void @llvm.lifetime.end.p0(i64 8, ptr %11) #7
  call void @llvm.lifetime.end.p0(i64 8, ptr %10) #7
  call void @llvm.lifetime.end.p0(i64 8, ptr %9) #7
  ret ptr %165

166:                                              ; preds = %157
  unreachable
}