; Function Attrs: nounwind uwtable
define internal fastcc ptr @build_paths_for_OR(ptr noundef %0, ptr noundef %1, ptr noundef %2, ptr noundef %3) unnamed_addr #0 {
  %5 = alloca %struct.IndexClauseSet, align 8
  %6 = getelementptr inbounds nuw i8, ptr %1, i64 176
  %7 = load ptr, ptr %6, align 8
  %8 = getelementptr inbounds nuw i8, ptr %7, i64 4
  %.not = icmp eq ptr %7, null
  br i1 %.not, label %._crit_edge, label %.lr.ph

.lr.ph:                                           ; preds = %4
  %9 = getelementptr inbounds nuw i8, ptr %7, i64 16
  %10 = getelementptr inbounds nuw i8, ptr %2, i64 4
  %.not.i = icmp eq ptr %2, null
  %11 = getelementptr inbounds nuw i8, ptr %2, i64 16
  %12 = getelementptr inbounds nuw i8, ptr %3, i64 4
  %.not.i53 = icmp eq ptr %3, null
  %13 = getelementptr inbounds nuw i8, ptr %3, i64 16
  %14 = load i32, ptr %8, align 4
  %15 = icmp sgt i32 %14, 0
  br i1 %15, label %.lr.ph72, label %._crit_edge

._crit_edge:                                      ; preds = %61, %.lr.ph, %4
  %.0.lcssa = phi ptr [ null, %4 ], [ null, %.lr.ph ], [ %.1, %61 ]
  ret ptr %.0.lcssa

.lr.ph72:                                         ; preds = %.lr.ph, %61
  %.0466371 = phi ptr [ %.147, %61 ], [ null, %.lr.ph ]
  %.06470 = phi ptr [ %.1, %61 ], [ null, %.lr.ph ]
  %indvars.iv69 = phi i64 [ %indvars.iv.next, %61 ], [ 0, %.lr.ph ]
  %16 = load ptr, ptr %9, align 8
  %17 = getelementptr inbounds nuw %union.ListCell, ptr %16, i64 %indvars.iv69
  %18 = load ptr, ptr %17, align 8
  call void @llvm.lifetime.start.p0(i64 264, ptr nonnull %5) #8
  %19 = getelementptr inbounds nuw i8, ptr %18, i64 178
  %20 = load i8, ptr %19, align 2, !range !4, !noundef !5
  %21 = trunc nuw i8 %20 to i1
  br i1 %21, label %22, label %61

22:                                               ; preds = %.lr.ph72
  %23 = getelementptr inbounds nuw i8, ptr %18, i64 144
  %24 = load ptr, ptr %23, align 8
  %.not52 = icmp eq ptr %24, null
  br i1 %.not52, label %39, label %25

25:                                               ; preds = %22
  %26 = getelementptr inbounds nuw i8, ptr %18, i64 168
  %27 = load i8, ptr %26, align 8, !range !4, !noundef !5
  %28 = trunc nuw i8 %27 to i1
  br i1 %28, label %39, label %29

29:                                               ; preds = %25
  %30 = icmp eq ptr %.0466371, null
  br i1 %30, label %31, label %33

31:                                               ; preds = %29
  %32 = tail call ptr @list_concat_copy(ptr noundef %2, ptr noundef %3) #8
  %.pre = load ptr, ptr %23, align 8
  br label %33

33:                                               ; preds = %31, %29
  %34 = phi ptr [ %.pre, %31 ], [ %24, %29 ]
  %.2 = phi ptr [ %32, %31 ], [ %.0466371, %29 ]
  %35 = tail call zeroext i1 @predicate_implied_by(ptr noundef %34, ptr noundef %.2, i1 noundef zeroext false) #8
  br i1 %35, label %36, label %61

36:                                               ; preds = %33
  %37 = load ptr, ptr %23, align 8
  %38 = tail call zeroext i1 @predicate_implied_by(ptr noundef %37, ptr noundef %3, i1 noundef zeroext false) #8
  %not. = xor i1 %38, true
  br label %39

39:                                               ; preds = %36, %22, %25
  %.049 = phi i1 [ false, %25 ], [ false, %22 ], [ %not., %36 ]
  %.3 = phi ptr [ %.0466371, %25 ], [ %.0466371, %22 ], [ %.2, %36 ]
  call void @llvm.memset.p0.i64(ptr noundef nonnull align 8 dereferenceable(264) %5, i8 0, i64 264, i1 false)
  br i1 %.not.i, label %match_clauses_to_index.exit, label %.lr.ph.i

.lr.ph.i:                                         ; preds = %39
  %40 = load i32, ptr %10, align 4
  %41 = icmp sgt i32 %40, 0
  br i1 %41, label %.lr.ph17.i, label %match_clauses_to_index.exit

.lr.ph17.i:                                       ; preds = %.lr.ph.i, %.lr.ph17.i
  %indvars.iv.i = phi i64 [ %indvars.iv.next.i, %.lr.ph17.i ], [ 0, %.lr.ph.i ]
  %42 = load ptr, ptr %11, align 8
  %43 = getelementptr inbounds nuw %union.ListCell, ptr %42, i64 %indvars.iv.i
  %44 = load ptr, ptr %43, align 8
  call fastcc void @match_clause_to_index(ptr noundef %0, ptr noundef %44, ptr noundef %18, ptr noundef nonnull %5)
  %indvars.iv.next.i = add nuw nsw i64 %indvars.iv.i, 1
  %45 = load i32, ptr %10, align 4
  %46 = sext i32 %45 to i64
  %47 = icmp slt i64 %indvars.iv.next.i, %46
  br i1 %47, label %.lr.ph17.i, label %match_clauses_to_index.exit.loopexit

match_clauses_to_index.exit.loopexit:             ; preds = %.lr.ph17.i
  %.pre68 = load i8, ptr %5, align 8, !range !4
  %48 = trunc nuw i8 %.pre68 to i1
  br label %match_clauses_to_index.exit

match_clauses_to_index.exit:                      ; preds = %match_clauses_to_index.exit.loopexit, %39, %.lr.ph.i
  %49 = phi i1 [ %48, %match_clauses_to_index.exit.loopexit ], [ false, %39 ], [ false, %.lr.ph.i ]
  %brmerge = or i1 %.049, %49
  br i1 %brmerge, label %50, label %61

50:                                               ; preds = %match_clauses_to_index.exit
  br i1 %.not.i53, label %match_clauses_to_index.exit58, label %.lr.ph.i54

.lr.ph.i54:                                       ; preds = %50
  %51 = load i32, ptr %12, align 4
  %52 = icmp sgt i32 %51, 0
  br i1 %52, label %.lr.ph17.i55, label %match_clauses_to_index.exit58

.lr.ph17.i55:                                     ; preds = %.lr.ph.i54, %.lr.ph17.i55
  %indvars.iv.i56 = phi i64 [ %indvars.iv.next.i57, %.lr.ph17.i55 ], [ 0, %.lr.ph.i54 ]
  %53 = load ptr, ptr %13, align 8
  %54 = getelementptr inbounds nuw %union.ListCell, ptr %53, i64 %indvars.iv.i56
  %55 = load ptr, ptr %54, align 8
  call fastcc void @match_clause_to_index(ptr noundef %0, ptr noundef %55, ptr noundef %18, ptr noundef nonnull %5)
  %indvars.iv.next.i57 = add nuw nsw i64 %indvars.iv.i56, 1
  %56 = load i32, ptr %12, align 4
  %57 = sext i32 %56 to i64
  %58 = icmp slt i64 %indvars.iv.next.i57, %57
  br i1 %58, label %.lr.ph17.i55, label %match_clauses_to_index.exit58

match_clauses_to_index.exit58:                    ; preds = %.lr.ph17.i55, %50, %.lr.ph.i54
  %59 = call fastcc ptr @build_index_paths(ptr noundef %0, ptr noundef %1, ptr noundef %18, ptr noundef %5, i1 noundef zeroext %.049, i32 noundef 1, ptr noundef null)
  %60 = tail call ptr @list_concat(ptr noundef %.06470, ptr noundef %59) #8
  br label %61

61:                                               ; preds = %match_clauses_to_index.exit, %33, %.lr.ph72, %match_clauses_to_index.exit58
  %.147 = phi ptr [ %.3, %match_clauses_to_index.exit58 ], [ %.0466371, %.lr.ph72 ], [ %.2, %33 ], [ %.3, %match_clauses_to_index.exit ]
  %.1 = phi ptr [ %60, %match_clauses_to_index.exit58 ], [ %.06470, %.lr.ph72 ], [ %.06470, %33 ], [ %.06470, %match_clauses_to_index.exit ]
  call void @llvm.lifetime.end.p0(i64 264, ptr nonnull %5) #8
  %indvars.iv.next = add nuw nsw i64 %indvars.iv69, 1
  %62 = load i32, ptr %8, align 4
  %63 = sext i32 %62 to i64
  %64 = icmp slt i64 %indvars.iv.next, %63
  br i1 %64, label %.lr.ph72, label %._crit_edge
}